target datalayout = "e-m:e-p270:32:32-p271:32:32-p272:64:64-i64:64-i128:128-f80:128-n8:16:32:64-S128"
target triple = "x86_64-pc-linux-gnu"

@.str.15 = private unnamed_addr constant [29 x i8] c"%s: tasks_per_socket is NULL\00", align 1
@__func__._get_task_cnt_node = private unnamed_addr constant [19 x i8] c"_get_task_cnt_node\00", align 1

; Function Attrs: nounwind uwtable
define internal i32 @_get_task_cnt_node(ptr noundef %0, i32 noundef %1) #0 {
  %3 = alloca i32, align 4
  %4 = alloca ptr, align 8
  %5 = alloca i32, align 4
  %6 = alloca i32, align 4
  %7 = alloca i32, align 4
  %8 = alloca i32, align 4
  store ptr %0, ptr %4, align 8
  store i32 %1, ptr %5, align 4
  call void @llvm.lifetime.start.p0(i64 4, ptr %6) #5
  store i32 0, ptr %6, align 4
  %9 = load ptr, ptr %4, align 8
  %10 = icmp ne ptr %9, null
  br i1 %10, label %13, label %11

11:                                               ; preds = %2
  %12 = call i32 (ptr, ...) @slurm_error(ptr noundef @.str.15, ptr noundef @__func__._get_task_cnt_node)
  store i32 1, ptr %3, align 4
  store i32 1, ptr %7, align 4
  br label %32

13:                                               ; preds = %2
  call void @llvm.lifetime.start.p0(i64 4, ptr %8) #5
  store i32 0, ptr %8, align 4
  br label %14

14:                                               ; preds = %27, %13
  %15 = load i32, ptr %8, align 4
  %16 = load i32, ptr %5, align 4
  %17 = icmp slt i32 %15, %16
  br i1 %17, label %19, label %18

18:                                               ; preds = %14
  store i32 2, ptr %7, align 4
  call void @llvm.lifetime.end.p0(i64 4, ptr %8) #5
  br label %30

19:                                               ; preds = %14
  %20 = load ptr, ptr %4, align 8
  %21 = load i32, ptr %8, align 4
  %22 = sext i32 %21 to i64
  %23 = getelementptr inbounds i32, ptr %20, i64 %22
  %24 = load i32, ptr %23, align 4
  %25 = load i32, ptr %6, align 4
  %26 = add i32 %25, %24
  store i32 %26, ptr %6, align 4
  br label %27

27:                                               ; preds = %19
  %28 = load i32, ptr %8, align 4
  %29 = add nsw i32 %28, 1
  store i32 %29, ptr %8, align 4
  br label %14, !llvm.loop !33

30:                                               ; preds = %18
  %31 = load i32, ptr %6, align 4
  store i32 %31, ptr %3, align 4
  store i32 1, ptr %7, align 4
  br label %32

32:                                               ; preds = %30, %11
  call void @llvm.lifetime.end.p0(i64 4, ptr %6) #5
  %33 = load i32, ptr %3, align 4
  ret i32 %33
}