; Function Attrs: nounwind uwtable
define internal fastcc i32 @_get_task_cnt_node(ptr noundef readonly captures(address_is_null) %0, i32 noundef %1) unnamed_addr #0 {
  %.not = icmp eq ptr %0, null
  br i1 %.not, label %4, label %.preheader

.preheader:                                       ; preds = %2
  %3 = icmp sgt i32 %1, 0
  br i1 %3, label %.lr.ph.preheader, label %.loopexit

.lr.ph.preheader:                                 ; preds = %.preheader
  %wide.trip.count = zext nneg i32 %1 to i64
  br label %.lr.ph

4:                                                ; preds = %2
  %5 = tail call i32 (ptr, ...) @slurm_error(ptr noundef nonnull @.str.15, ptr noundef nonnull @__func__._get_task_cnt_node) #8
  br label %.loopexit

.lr.ph:                                           ; preds = %.lr.ph.preheader, %.lr.ph
  %indvars.iv = phi i64 [ 0, %.lr.ph.preheader ], [ %indvars.iv.next, %.lr.ph ]
  %.0811 = phi i32 [ 0, %.lr.ph.preheader ], [ %8, %.lr.ph ]
  %6 = getelementptr inbounds nuw i32, ptr %0, i64 %indvars.iv
  %7 = load i32, ptr %6, align 4
  %8 = add i32 %7, %.0811
  %indvars.iv.next = add nuw nsw i64 %indvars.iv, 1
  %exitcond.not = icmp eq i64 %indvars.iv.next, %wide.trip.count
  br i1 %exitcond.not, label %.loopexit, label %.lr.ph, !llvm.loop !42

.loopexit:                                        ; preds = %.lr.ph, %.preheader, %4
  %.09 = phi i32 [ 1, %4 ], [ 0, %.preheader ], [ %8, %.lr.ph ]
  ret i32 %.09
}